; Function Attrs: nofree norecurse nosync nounwind memory(read, inaccessiblemem: none) uwtable
define i32 @Fra_ClassesCountPairs(ptr noundef readonly captures(none) %0) local_unnamed_addr #10 {
  %2 = getelementptr inbounds nuw i8, ptr %0, i64 16
  %3 = load ptr, ptr %2, align 8, !tbaa !28
  %4 = getelementptr i8, ptr %3, i64 4
  %.val = load i32, ptr %4, align 4, !tbaa !23
  %5 = icmp sgt i32 %.val, 0
  br i1 %5, label %.lr.ph, label %.critedge

.lr.ph:                                           ; preds = %1
  %6 = getelementptr i8, ptr %3, i64 8
  %.val10 = load ptr, ptr %6, align 8, !tbaa !27
  %wide.trip.count = zext nneg i32 %.val to i64
  br label %7

7:                                                ; preds = %.lr.ph, %Fra_ClassCount.exit
  %indvars.iv = phi i64 [ 0, %.lr.ph ], [ %indvars.iv.next, %Fra_ClassCount.exit ]
  %.012 = phi i32 [ 0, %.lr.ph ], [ %17, %Fra_ClassCount.exit ]
  %8 = getelementptr inbounds nuw ptr, ptr %.val10, i64 %indvars.iv
  %9 = load ptr, ptr %8, align 8, !tbaa !41
  br label %10

10:                                               ; preds = %10, %7
  %indvars.iv.i = phi i64 [ %indvars.iv.next.i, %10 ], [ 0, %7 ]
  %11 = getelementptr inbounds nuw ptr, ptr %9, i64 %indvars.iv.i
  %12 = load ptr, ptr %11, align 8, !tbaa !42
  %.not.i = icmp eq ptr %12, null
  %indvars.iv.next.i = add nuw nsw i64 %indvars.iv.i, 1
  br i1 %.not.i, label %Fra_ClassCount.exit, label %10, !llvm.loop !47

Fra_ClassCount.exit:                              ; preds = %10
  %13 = trunc nuw nsw i64 %indvars.iv.i to i32
  %14 = add nsw i32 %13, -1
  %15 = mul nsw i32 %14, %13
  %16 = sdiv i32 %15, 2
  %17 = add nsw i32 %16, %.012
  %indvars.iv.next = add nuw nsw i64 %indvars.iv, 1
  %exitcond.not = icmp eq i64 %indvars.iv.next, %wide.trip.count
  br i1 %exitcond.not, label %.critedge, label %7, !llvm.loop !49

.critedge:                                        ; preds = %Fra_ClassCount.exit, %1
  %.0.lcssa = phi i32 [ 0, %1 ], [ %17, %Fra_ClassCount.exit ]
  ret i32 %.0.lcssa
}